target datalayout = "e-m:e-p270:32:32-p271:32:32-p272:64:64-i64:64-i128:128-f80:128-n8:16:32:64-S128"
target triple = "x86_64-pc-linux-gnu"

%struct.IDAMemRec = type { ptr, double, ptr, ptr, i32, double, double, ptr, i32, i32, ptr, ptr, i32, i32, [6 x ptr], [6 x double], [6 x double], [6 x double], [6 x double], [6 x double], ptr, ptr, ptr, ptr, ptr, ptr, ptr, ptr, ptr, ptr, ptr, ptr, ptr, ptr, ptr, ptr, ptr, double, ptr, ptr, i32, i32, i32, i32, i32, i32, i32, i32, double, double, double, i32, double, i32, i32, i32, i32, i32, double, double, double, double, double, double, double, double, double, double, double, double, double, double, double, double, i32, i32, i32, i32, i64, double, double, double, double, double, double, double, double, double, i64, i64, i64, i64, i64, i64, i64, i64, i64, i64, i64, double, i32, i32, i32, i32, i32, ptr, i32, ptr, ptr, ptr, ptr, ptr, ptr, ptr, double, i32, ptr, i32, ptr, ptr, double, double, double, ptr, ptr, ptr, double, double, i32, i32, i64, ptr, i32, [6 x double], [5 x double], [6 x ptr], [6 x ptr] }

@.str = private unnamed_addr constant [109 x i8] c"generated/home/dtcxzyw/WorkSpace/Projects/compilers/llvm-opt-benchmark/bench/sundials/sundials/src/ida/ida.c\00", align 1
@.str.3 = private unnamed_addr constant [24 x i8] c"ida_mem = NULL illegal.\00", align 1
@.str.9 = private unnamed_addr constant [34 x i8] c"Attempt to call before IDAMalloc.\00", align 1
@.str.10 = private unnamed_addr constant [18 x i8] c"rtol < 0 illegal.\00", align 1
@.str.11 = private unnamed_addr constant [35 x i8] c"Some atol component < 0.0 illegal.\00", align 1
@__func__.IDASVtolerances = private unnamed_addr constant [16 x i8] c"IDASVtolerances\00", align 1

; Function Attrs: nounwind uwtable
define i32 @IDASVtolerances(ptr noundef %0, double noundef %1, ptr noundef %2) #0 {
  %4 = alloca i32, align 4
  %5 = alloca ptr, align 8
  %6 = alloca double, align 8
  %7 = alloca ptr, align 8
  %8 = alloca ptr, align 8
  %9 = alloca double, align 8
  %10 = alloca i32, align 4
  store ptr %0, ptr %5, align 8, !tbaa !73
  store double %1, ptr %6, align 8, !tbaa !74
  store ptr %2, ptr %7, align 8, !tbaa !75
  call void @llvm.lifetime.start.p0(i64 8, ptr %8) #10
  call void @llvm.lifetime.start.p0(i64 8, ptr %9) #10
  %11 = load ptr, ptr %5, align 8, !tbaa !73
  %12 = icmp eq ptr %11, null
  br i1 %12, label %13, label %14

13:                                               ; preds = %3
  call void (ptr, i32, i32, ptr, ptr, ptr, ...) @IDAProcessError(ptr noundef null, i32 noundef -20, i32 noundef 719, ptr noundef @__func__.IDASVtolerances, ptr noundef @.str, ptr noundef @.str.3)
  store i32 -20, ptr %4, align 4
  store i32 1, ptr %10, align 4
  br label %83

14:                                               ; preds = %3
  %15 = load ptr, ptr %5, align 8, !tbaa !73
  store ptr %15, ptr %8, align 8, !tbaa !8
  %16 = load ptr, ptr %8, align 8, !tbaa !8
  %17 = getelementptr inbounds nuw %struct.IDAMemRec, ptr %16, i32 0, i32 104
  %18 = load i32, ptr %17, align 8, !tbaa !61
  %19 = icmp eq i32 %18, 0
  br i1 %19, label %20, label %22

20:                                               ; preds = %14
  %21 = load ptr, ptr %8, align 8, !tbaa !8
  call void (ptr, i32, i32, ptr, ptr, ptr, ...) @IDAProcessError(ptr noundef %21, i32 noundef -23, i32 noundef 726, ptr noundef @__func__.IDASVtolerances, ptr noundef @.str, ptr noundef @.str.9)
  store i32 -23, ptr %4, align 4
  store i32 1, ptr %10, align 4
  br label %83

22:                                               ; preds = %14
  %23 = load double, ptr %6, align 8, !tbaa !74
  %24 = fcmp olt double %23, 0.000000e+00
  br i1 %24, label %25, label %27

25:                                               ; preds = %22
  %26 = load ptr, ptr %8, align 8, !tbaa !8
  call void (ptr, i32, i32, ptr, ptr, ptr, ...) @IDAProcessError(ptr noundef %26, i32 noundef -22, i32 noundef 735, ptr noundef @__func__.IDASVtolerances, ptr noundef @.str, ptr noundef @.str.10)
  store i32 -22, ptr %4, align 4
  store i32 1, ptr %10, align 4
  br label %83

27:                                               ; preds = %22
  %28 = load ptr, ptr %7, align 8, !tbaa !75
  %29 = call double @N_VMin(ptr noundef %28)
  store double %29, ptr %9, align 8, !tbaa !74
  %30 = load double, ptr %9, align 8, !tbaa !74
  %31 = fcmp olt double %30, 0.000000e+00
  br i1 %31, label %32, label %34

32:                                               ; preds = %27
  %33 = load ptr, ptr %8, align 8, !tbaa !8
  call void (ptr, i32, i32, ptr, ptr, ptr, ...) @IDAProcessError(ptr noundef %33, i32 noundef -22, i32 noundef 743, ptr noundef @__func__.IDASVtolerances, ptr noundef @.str, ptr noundef @.str.11)
  store i32 -22, ptr %4, align 4
  store i32 1, ptr %10, align 4
  br label %83

34:                                               ; preds = %27
  %35 = load ptr, ptr %8, align 8, !tbaa !8
  %36 = getelementptr inbounds nuw %struct.IDAMemRec, ptr %35, i32 0, i32 101
  %37 = load i32, ptr %36, align 4, !tbaa !58
  %38 = icmp ne i32 %37, 0
  br i1 %38, label %62, label %39

39:                                               ; preds = %34
  %40 = load ptr, ptr %8, align 8, !tbaa !8
  %41 = getelementptr inbounds nuw %struct.IDAMemRec, ptr %40, i32 0, i32 20
  %42 = load ptr, ptr %41, align 8, !tbaa !125
  %43 = call ptr @N_VClone(ptr noundef %42)
  %44 = load ptr, ptr %8, align 8, !tbaa !8
  %45 = getelementptr inbounds nuw %struct.IDAMemRec, ptr %44, i32 0, i32 7
  store ptr %43, ptr %45, align 8, !tbaa !134
  %46 = load ptr, ptr %8, align 8, !tbaa !8
  %47 = getelementptr inbounds nuw %struct.IDAMemRec, ptr %46, i32 0, i32 95
  %48 = load i64, ptr %47, align 8, !tbaa !81
  %49 = load ptr, ptr %8, align 8, !tbaa !8
  %50 = getelementptr inbounds nuw %struct.IDAMemRec, ptr %49, i32 0, i32 97
  %51 = load i64, ptr %50, align 8, !tbaa !56
  %52 = add nsw i64 %51, %48
  store i64 %52, ptr %50, align 8, !tbaa !56
  %53 = load ptr, ptr %8, align 8, !tbaa !8
  %54 = getelementptr inbounds nuw %struct.IDAMemRec, ptr %53, i32 0, i32 96
  %55 = load i64, ptr %54, align 8, !tbaa !82
  %56 = load ptr, ptr %8, align 8, !tbaa !8
  %57 = getelementptr inbounds nuw %struct.IDAMemRec, ptr %56, i32 0, i32 98
  %58 = load i64, ptr %57, align 8, !tbaa !57
  %59 = add nsw i64 %58, %55
  store i64 %59, ptr %57, align 8, !tbaa !57
  %60 = load ptr, ptr %8, align 8, !tbaa !8
  %61 = getelementptr inbounds nuw %struct.IDAMemRec, ptr %60, i32 0, i32 101
  store i32 1, ptr %61, align 4, !tbaa !58
  br label %62

62:                                               ; preds = %39, %34
  %63 = load double, ptr %6, align 8, !tbaa !74
  %64 = load ptr, ptr %8, align 8, !tbaa !8
  %65 = getelementptr inbounds nuw %struct.IDAMemRec, ptr %64, i32 0, i32 5
  store double %63, ptr %65, align 8, !tbaa !135
  %66 = load ptr, ptr %7, align 8, !tbaa !75
  %67 = load ptr, ptr %8, align 8, !tbaa !8
  %68 = getelementptr inbounds nuw %struct.IDAMemRec, ptr %67, i32 0, i32 7
  %69 = load ptr, ptr %68, align 8, !tbaa !134
  call void @N_VScale(double noundef 1.000000e+00, ptr noundef %66, ptr noundef %69)
  %70 = load double, ptr %9, align 8, !tbaa !74
  %71 = fcmp oeq double %70, 0.000000e+00
  %72 = zext i1 %71 to i32
  %73 = load ptr, ptr %8, align 8, !tbaa !8
  %74 = getelementptr inbounds nuw %struct.IDAMemRec, ptr %73, i32 0, i32 8
  store i32 %72, ptr %74, align 8, !tbaa !23
  %75 = load ptr, ptr %8, align 8, !tbaa !8
  %76 = getelementptr inbounds nuw %struct.IDAMemRec, ptr %75, i32 0, i32 4
  store i32 2, ptr %76, align 8, !tbaa !22
  %77 = load ptr, ptr %8, align 8, !tbaa !8
  %78 = getelementptr inbounds nuw %struct.IDAMemRec, ptr %77, i32 0, i32 9
  store i32 0, ptr %78, align 4, !tbaa !24
  %79 = load ptr, ptr %8, align 8, !tbaa !8
  %80 = getelementptr inbounds nuw %struct.IDAMemRec, ptr %79, i32 0, i32 10
  store ptr @IDAEwtSet, ptr %80, align 8, !tbaa !25
  %81 = load ptr, ptr %8, align 8, !tbaa !8
  %82 = getelementptr inbounds nuw %struct.IDAMemRec, ptr %81, i32 0, i32 11
  store ptr null, ptr %82, align 8, !tbaa !26
  store i32 0, ptr %4, align 4
  store i32 1, ptr %10, align 4
  br label %83

83:                                               ; preds = %62, %32, %25, %20, %13
  call void @llvm.lifetime.end.p0(i64 8, ptr %9) #10
  call void @llvm.lifetime.end.p0(i64 8, ptr %8) #10
  %84 = load i32, ptr %4, align 4
  ret i32 %84
}