; Function Attrs: nounwind uwtable
define range(i32 -23, 1) i32 @IDASVtolerances(ptr noundef captures(address_is_null) %0, double noundef %1, ptr noundef %2) local_unnamed_addr #0 {
  %4 = icmp eq ptr %0, null
  br i1 %4, label %5, label %6

5:                                                ; preds = %3
  tail call void (ptr, i32, i32, ptr, ptr, ptr, ...) @IDAProcessError(ptr noundef null, i32 noundef -20, i32 noundef 719, ptr noundef nonnull @__func__.IDASVtolerances, ptr noundef nonnull @.str, ptr noundef nonnull @.str.3)
  br label %46

6:                                                ; preds = %3
  %7 = getelementptr inbounds nuw i8, ptr %0, i64 976
  %8 = load i32, ptr %7, align 8, !tbaa !90
  %9 = icmp eq i32 %8, 0
  br i1 %9, label %10, label %11

10:                                               ; preds = %6
  tail call void (ptr, i32, i32, ptr, ptr, ptr, ...) @IDAProcessError(ptr noundef nonnull %0, i32 noundef -23, i32 noundef 726, ptr noundef nonnull @__func__.IDASVtolerances, ptr noundef nonnull @.str, ptr noundef nonnull @.str.9)
  br label %46

11:                                               ; preds = %6
  %12 = fcmp olt double %1, 0.000000e+00
  br i1 %12, label %13, label %14

13:                                               ; preds = %11
  tail call void (ptr, i32, i32, ptr, ptr, ptr, ...) @IDAProcessError(ptr noundef nonnull %0, i32 noundef -22, i32 noundef 735, ptr noundef nonnull @__func__.IDASVtolerances, ptr noundef nonnull @.str, ptr noundef nonnull @.str.10)
  br label %46

14:                                               ; preds = %11
  %15 = tail call double @N_VMin(ptr noundef %2) #13
  %16 = fcmp olt double %15, 0.000000e+00
  br i1 %16, label %17, label %18

17:                                               ; preds = %14
  tail call void (ptr, i32, i32, ptr, ptr, ptr, ...) @IDAProcessError(ptr noundef nonnull %0, i32 noundef -22, i32 noundef 743, ptr noundef nonnull @__func__.IDASVtolerances, ptr noundef nonnull @.str, ptr noundef nonnull @.str.11)
  br label %46

18:                                               ; preds = %14
  %19 = getelementptr inbounds nuw i8, ptr %0, i64 964
  %20 = load i32, ptr %19, align 4, !tbaa !91
  %.not = icmp eq i32 %20, 0
  br i1 %.not, label %21, label %._crit_edge

._crit_edge:                                      ; preds = %18
  %.phi.trans.insert = getelementptr inbounds nuw i8, ptr %0, i64 56
  %.pre = load ptr, ptr %.phi.trans.insert, align 8, !tbaa !92
  br label %36

21:                                               ; preds = %18
  %22 = getelementptr inbounds nuw i8, ptr %0, i64 384
  %23 = load ptr, ptr %22, align 8, !tbaa !69
  %24 = tail call ptr @N_VClone(ptr noundef %23) #13
  %25 = getelementptr inbounds nuw i8, ptr %0, i64 56
  store ptr %24, ptr %25, align 8, !tbaa !92
  %26 = getelementptr inbounds nuw i8, ptr %0, i64 920
  %27 = load i64, ptr %26, align 8, !tbaa !67
  %28 = getelementptr inbounds nuw i8, ptr %0, i64 936
  %29 = load i64, ptr %28, align 8, !tbaa !38
  %30 = add nsw i64 %29, %27
  store i64 %30, ptr %28, align 8, !tbaa !38
  %31 = getelementptr inbounds nuw i8, ptr %0, i64 928
  %32 = load i64, ptr %31, align 8, !tbaa !68
  %33 = getelementptr inbounds nuw i8, ptr %0, i64 944
  %34 = load i64, ptr %33, align 8, !tbaa !39
  %35 = add nsw i64 %34, %32
  store i64 %35, ptr %33, align 8, !tbaa !39
  store i32 1, ptr %19, align 4, !tbaa !91
  br label %36

36:                                               ; preds = %._crit_edge, %21
  %37 = phi ptr [ %.pre, %._crit_edge ], [ %24, %21 ]
  %38 = getelementptr inbounds nuw i8, ptr %0, i64 40
  store double %1, ptr %38, align 8, !tbaa !99
  tail call void @N_VScale(double noundef 1.000000e+00, ptr noundef %2, ptr noundef %37) #13
  %39 = fcmp oeq double %15, 0.000000e+00
  %40 = zext i1 %39 to i32
  %41 = getelementptr inbounds nuw i8, ptr %0, i64 64
  store i32 %40, ptr %41, align 8, !tbaa !17
  %42 = getelementptr inbounds nuw i8, ptr %0, i64 32
  store i32 2, ptr %42, align 8, !tbaa !101
  %43 = getelementptr inbounds nuw i8, ptr %0, i64 68
  store i32 0, ptr %43, align 4, !tbaa !102
  %44 = getelementptr inbounds nuw i8, ptr %0, i64 72
  store ptr @IDAEwtSet, ptr %44, align 8, !tbaa !103
  %45 = getelementptr inbounds nuw i8, ptr %0, i64 80
  store ptr null, ptr %45, align 8, !tbaa !104
  br label %46

46:                                               ; preds = %36, %17, %13, %10, %5
  %.0 = phi i32 [ -20, %5 ], [ -23, %10 ], [ -22, %13 ], [ -22, %17 ], [ 0, %36 ]
  ret i32 %.0
}